Certificate:
    Data:
        Version: 3 (0x2)
        Serial Number: 1048578 (0x100002)
        Signature Algorithm: md5WithRSAEncryption
        Issuer: C=UK, O=IntegralistLtd, CN=Integralist/emailAddress=ca@integralist.com
        Validity
            Not Before: Oct  3 14:23:07 2015 GMT
            Not After : Oct  2 14:23:07 2016 GMT
        Subject: C=UK, CN=TheClient/emailAddress=client@integralist.com
        Subject Public Key Info:
            Public Key Algorithm: rsaEncryption
            RSA Public Key: (2048 bit)
                Modulus (2048 bit):
                    00:af:0f:fc:45:0c:a8:15:d5:49:c2:37:8f:4f:d7:
                    64:97:db:30:36:a9:ac:ef:c6:a4:06:fe:11:ab:32:
                    b5:0d:15:e0:64:b9:69:b8:0e:bc:85:73:05:ba:c0:
                    7b:58:fe:e1:65:f3:b5:aa:fd:63:17:c4:9c:62:7d:
                    27:3a:9c:e8:45:45:e0:a7:36:ee:c4:7f:da:34:78:
                    15:d6:72:58:77:61:07:d1:c4:91:6a:b8:b0:e7:53:
                    be:58:df:ca:59:f4:e0:70:3a:d4:fa:d7:ec:d1:51:
                    82:b1:a4:ec:a8:ad:9b:4a:8b:40:c6:61:c3:ee:bb:
                    6e:61:52:f8:0f:a2:3f:06:d1:4c:55:c6:70:ca:39:
                    ff:74:7a:52:10:da:92:99:83:6a:93:32:13:ee:63:
                    b7:a3:53:12:ea:60:7c:07:0f:cb:a0:84:3c:e6:9b:
                    f6:8b:5a:17:f7:56:60:c6:cb:0c:ac:fe:2b:0d:f6:
                    fa:f8:d4:14:cc:66:a7:99:fd:75:b7:21:8b:3c:a4:
                    a5:b0:06:1c:6e:f9:7d:22:08:66:84:67:f8:8a:44:
                    e8:42:8b:da:f4:7a:31:ec:44:0f:04:3d:c5:30:f4:
                    f0:3f:f1:17:16:b3:f8:5c:53:03:8d:84:fb:2d:bb:
                    2f:f6:95:07:c4:77:be:ca:00:fa:59:d9:8c:8e:7c:
                    ad:89
                Exponent: 65537 (0x10001)
        X509v3 extensions:
            X509v3 Basic Constraints: 
                CA:FALSE
            X509v3 Subject Key Identifier: 
                6D:F6:71:54:38:DA:C5:3A:25:24:2C:F5:37:BA:98:72:E4:C2:1C:09
            X509v3 Authority Key Identifier: 
                keyid:43:3A:75:41:E1:AE:46:F0:5F:AC:F4:24:6A:3A:DB:D1:31:7E:27:6B

            X509v3 CRL Distribution Points: 
                URI:http://www.yourdomain.com/ca/crl.pem

    Signature Algorithm: md5WithRSAEncryption
        09:f8:64:1f:82:a1:bc:57:ce:b6:66:ba:cc:5e:f3:04:3e:d0:
        82:96:20:ae:d0:80:2e:71:49:5c:01:38:46:bf:71:49:24:44:
        3d:88:63:29:d1:12:9b:9f:bb:49:a5:47:0a:a2:10:4d:55:92:
        84:37:7c:ee:96:18:18:6b:3d:6a:2e:e5:65:6e:c8:38:81:11:
        d2:aa:c6:c8:17:f5:0b:0e:b3:b4:4e:ae:6c:50:13:2e:e6:d2:
        d9:50:f2:3b:26:1b:a6:94:26:5a:a6:06:2a:a7:65:0a:7d:15:
        5f:e5:4e:d5:f0:7d:1a:e7:07:0b:b0:c8:2c:63:b5:47:d8:cb:
        61:38
-----BEGIN CERTIFICATE-----
MIIDKTCCApKgAwIBAgIDEAACMA0GCSqGSIb3DQEBBAUAMF8xCzAJBgNVBAYTAlVL
MRcwFQYDVQQKEw5JbnRlZ3JhbGlzdEx0ZDEUMBIGA1UEAxMLSW50ZWdyYWxpc3Qx
ITAfBgkqhkiG9w0BCQEWEmNhQGludGVncmFsaXN0LmNvbTAeFw0xNTEwMDMxNDIz
MDdaFw0xNjEwMDIxNDIzMDdaMEgxCzAJBgNVBAYTAlVLMRIwEAYDVQQDEwlUaGVD
bGllbnQxJTAjBgkqhkiG9w0BCQEWFmNsaWVudEBpbnRlZ3JhbGlzdC5jb20wggEi
MA0GCSqGSIb3DQEBAQUAA4IBDwAwggEKAoIBAQCvD/xFDKgV1UnCN49P12SX2zA2
qazvxqQG/hGrMrUNFeBkuWm4DryFcwW6wHtY/uFl87Wq/WMXxJxifSc6nOhFReCn
Nu7Ef9o0eBXWclh3YQfRxJFquLDnU75Y38pZ9OBwOtT61+zRUYKxpOyorZtKi0DG
YcPuu25hUvgPoj8G0UxVxnDKOf90elIQ2pKZg2qTMhPuY7ejUxLqYHwHD8ughDzm
m/aLWhf3VmDGywys/isN9vr41BTMZqeZ/XW3IYs8pKWwBhxu+X0iCGaEZ/iKROhC
i9r0ejHsRA8EPcUw9PA/8RcWs/hcUwONhPstuy/2lQfEd77KAPpZ2YyOfK2JAgMB
AAGjgYUwgYIwCQYDVR0TBAIwADAdBgNVHQ4EFgQUbfZxVDjaxTolJCz1N7qYcuTC
HAkwHwYDVR0jBBgwFoAUQzp1QeGuRvBfrPQkajrb0TF+J2swNQYDVR0fBC4wLDAq
oCigJoYkaHR0cDovL3d3dy55b3VyZG9tYWluLmNvbS9jYS9jcmwucGVtMA0GCSqG
SIb3DQEBBAUAA4GBAAn4ZB+CobxXzrZmusxe8wQ+0IKWIK7QgC5xSVwBOEa/cUkk
RD2IYynREpufu0mlRwqiEE1VkoQ3fO6WGBhrPWou5WVuyDiBEdKqxsgX9QsOs7RO
rmxQEy7m0tlQ8jsmG6aUJlqmBiqnZQp9FV/lTtXwfRrnBwuwyCxjtUfYy2E4
-----END CERTIFICATE-----
