Certificate:
    Data:
        Version: 3 (0x2)
        Serial Number: 1048577 (0x100001)
        Signature Algorithm: md5WithRSAEncryption
        Issuer: C=UK, O=IntegralistLtd, CN=Integralist/emailAddress=ca@integralist.com
        Validity
            Not Before: Oct  3 14:14:23 2015 GMT
            Not After : Oct  2 14:14:23 2016 GMT
        Subject: C=UK, CN=TheServer/emailAddress=server@integralist.com
        Subject Public Key Info:
            Public Key Algorithm: rsaEncryption
            RSA Public Key: (2048 bit)
                Modulus (2048 bit):
                    00:b7:95:d4:c6:2e:d1:19:e5:8e:d9:fc:fe:95:66:
                    41:3a:72:f0:ed:56:57:09:72:53:f8:14:27:31:30:
                    bc:c5:4c:55:00:34:3c:b4:f9:19:ea:81:fe:99:9f:
                    15:e0:6b:f3:fb:a2:dd:d4:f8:e5:32:95:dd:85:5a:
                    54:84:e8:16:fb:d2:00:f9:f8:4e:d9:ee:a6:a3:e8:
                    a0:d7:94:1f:0b:76:57:5b:05:f7:b7:e7:b7:e9:d6:
                    26:cb:45:3e:2f:ac:85:36:cb:22:fd:0e:84:ce:c1:
                    0a:30:cb:57:49:07:a5:6a:79:41:22:41:b2:36:51:
                    6f:7f:35:d3:c8:43:50:e4:7c:86:7b:6d:a4:6d:c8:
                    b0:a1:65:39:31:a2:10:47:93:5a:de:a3:1f:4f:49:
                    40:e7:f3:e1:a2:28:54:a5:35:d8:fa:65:40:11:07:
                    8c:b9:45:95:e3:41:a3:41:13:fb:11:be:66:7b:dc:
                    29:cc:7a:d1:af:e3:52:9f:3a:f5:60:d3:f6:d0:72:
                    00:80:92:67:3f:30:18:1a:7d:11:ba:bc:8c:f6:87:
                    70:ce:3d:cb:b3:93:1e:8e:89:7a:41:ee:9f:0e:f7:
                    ff:0a:59:77:9e:0c:b5:a4:20:32:fc:85:14:af:4a:
                    aa:ae:ce:04:4a:4d:e2:79:63:87:7a:f8:b0:43:6a:
                    90:c5
                Exponent: 65537 (0x10001)
        X509v3 extensions:
            X509v3 Basic Constraints: 
                CA:FALSE
            X509v3 Subject Key Identifier: 
                A9:B6:0F:76:AE:E5:DF:93:4F:66:FF:09:23:43:D3:BB:BD:90:C8:D3
            X509v3 Authority Key Identifier: 
                keyid:43:3A:75:41:E1:AE:46:F0:5F:AC:F4:24:6A:3A:DB:D1:31:7E:27:6B

            X509v3 CRL Distribution Points: 
                URI:http://www.yourdomain.com/ca/crl.pem

    Signature Algorithm: md5WithRSAEncryption
        6c:82:da:eb:74:83:ad:e0:6f:44:73:68:7e:88:7e:dc:8b:7b:
        4b:af:ae:e7:b5:21:f1:31:30:e7:ca:b4:aa:58:83:76:01:0c:
        c5:3f:aa:34:3b:eb:d3:62:c0:b9:db:95:c1:4a:cc:a0:13:c4:
        a4:be:73:f7:a5:85:29:dd:18:3f:b3:aa:bf:8e:26:f6:3a:cb:
        7b:f2:eb:2a:73:ba:1e:04:be:da:ff:e9:cb:00:a7:2c:08:94:
        31:1d:96:62:5f:de:99:30:23:cc:3a:15:8d:8a:65:4c:77:6a:
        b4:f6:9b:a5:12:50:62:45:5e:a4:d0:70:e0:a2:fa:f6:45:05:
        b3:87
-----BEGIN CERTIFICATE-----
MIIDKTCCApKgAwIBAgIDEAABMA0GCSqGSIb3DQEBBAUAMF8xCzAJBgNVBAYTAlVL
MRcwFQYDVQQKEw5JbnRlZ3JhbGlzdEx0ZDEUMBIGA1UEAxMLSW50ZWdyYWxpc3Qx
ITAfBgkqhkiG9w0BCQEWEmNhQGludGVncmFsaXN0LmNvbTAeFw0xNTEwMDMxNDE0
MjNaFw0xNjEwMDIxNDE0MjNaMEgxCzAJBgNVBAYTAlVLMRIwEAYDVQQDEwlUaGVT
ZXJ2ZXIxJTAjBgkqhkiG9w0BCQEWFnNlcnZlckBpbnRlZ3JhbGlzdC5jb20wggEi
MA0GCSqGSIb3DQEBAQUAA4IBDwAwggEKAoIBAQC3ldTGLtEZ5Y7Z/P6VZkE6cvDt
VlcJclP4FCcxMLzFTFUANDy0+Rnqgf6ZnxXga/P7ot3U+OUyld2FWlSE6Bb70gD5
+E7Z7qaj6KDXlB8LdldbBfe357fp1ibLRT4vrIU2yyL9DoTOwQowy1dJB6VqeUEi
QbI2UW9/NdPIQ1DkfIZ7baRtyLChZTkxohBHk1reox9PSUDn8+GiKFSlNdj6ZUAR
B4y5RZXjQaNBE/sRvmZ73CnMetGv41KfOvVg0/bQcgCAkmc/MBgafRG6vIz2h3DO
Pcuzkx6OiXpB7p8O9/8KWXeeDLWkIDL8hRSvSqquzgRKTeJ5Y4d6+LBDapDFAgMB
AAGjgYUwgYIwCQYDVR0TBAIwADAdBgNVHQ4EFgQUqbYPdq7l35NPZv8JI0PTu72Q
yNMwHwYDVR0jBBgwFoAUQzp1QeGuRvBfrPQkajrb0TF+J2swNQYDVR0fBC4wLDAq
oCigJoYkaHR0cDovL3d3dy55b3VyZG9tYWluLmNvbS9jYS9jcmwucGVtMA0GCSqG
SIb3DQEBBAUAA4GBAGyC2ut0g63gb0RzaH6IftyLe0uvrue1IfExMOfKtKpYg3YB
DMU/qjQ769NiwLnblcFKzKATxKS+c/elhSndGD+zqr+OJvY6y3vy6ypzuh4Evtr/
6csApywIlDEdlmJf3pkwI8w6FY2KZUx3arT2m6USUGJFXqTQcOCi+vZFBbOH
-----END CERTIFICATE-----
